target datalayout = "e-m:e-p270:32:32-p271:32:32-p272:64:64-i64:64-i128:128-f80:128-n8:16:32:64-S128"
target triple = "x86_64-pc-linux-gnu"

%class.QString = type { %struct.QArrayDataPointer }
%struct.QArrayDataPointer = type { ptr, ptr, i64 }
%class.RtpStreamDialog = type { %class.WiresharkDialog.base, ptr, %struct._rtpstream_tapinfo, ptr, ptr, ptr, ptr, ptr, ptr, %class.QMenu, i8, %class.QList.1 }
%class.WiresharkDialog.base = type <{ %class.GeometryStateDialog, ptr, i8, [7 x i8], %class.QString, %class.QList, i32, i8 }>
%class.GeometryStateDialog = type { %class.QDialog, %class.QString }
%class.QDialog = type { %class.QWidget }
%class.QWidget = type { %class.QObject, %class.QPaintDevice.base, ptr }
%class.QObject = type { ptr, %class.QScopedPointer }
%class.QScopedPointer = type { ptr }
%class.QPaintDevice.base = type <{ ptr, i16 }>
%class.QList = type { %struct.QArrayDataPointer.0 }
%struct.QArrayDataPointer.0 = type { ptr, ptr, i64 }
%struct._rtpstream_tapinfo = type { ptr, ptr, ptr, ptr, i32, ptr, ptr, i32, i32, ptr, ptr, ptr, i32, i32 }
%class.QMenu = type { %class.QWidget }
%class.QList.1 = type { %struct.QArrayDataPointer.4 }
%struct.QArrayDataPointer.4 = type { ptr, ptr, i64 }
%class.Ui_RtpStreamDialog = type { ptr, ptr, ptr, ptr, ptr, ptr, ptr, ptr, ptr, ptr, ptr, ptr, ptr, ptr, ptr, ptr, ptr, ptr, ptr, ptr, ptr, ptr, ptr, ptr, ptr }
%class.QFlags.26 = type { i32 }
%class.QEvent = type { ptr, i16, i8, i8, i8, i8, i16 }
%class.QKeyEvent = type <{ %class.QInputEvent, %class.QString, i32, i32, i32, i32, i16, [6 x i8] }>
%class.QInputEvent = type { %class.QEvent, ptr, i64, %class.QFlags.26, i32 }
%class.QFlag = type { i32 }

; Function Attrs: mustprogress nounwind uwtable
define linkonce_odr noundef i32 @_ZNK5QFlagcvjEv(ptr noundef nonnull align 4 dereferenceable(4) %0) #5 comdat align 2 {
  %2 = alloca ptr, align 8
  store ptr %0, ptr %2, align 8
  %3 = load ptr, ptr %2, align 8
  %4 = getelementptr inbounds %class.QFlag, ptr %3, i32 0, i32 0
  %5 = load i32, ptr %4, align 4
  ret i32 %5
}

; Function Attrs: mustprogress nounwind uwtable
define linkonce_odr void @_ZN6QFlagsIN2Qt16KeyboardModifierEEC2E5QFlag(ptr noundef nonnull align 4 dereferenceable(4) %0, i32 %1) unnamed_addr #5 comdat align 2 {
  %3 = alloca %class.QFlag, align 4
  %4 = alloca ptr, align 8
  %5 = getelementptr inbounds %class.QFlag, ptr %3, i32 0, i32 0
  store i32 %1, ptr %5, align 4
  store ptr %0, ptr %4, align 8
  %6 = load ptr, ptr %4, align 8
  %7 = getelementptr inbounds %class.QFlags.26, ptr %6, i32 0, i32 0
  %8 = call noundef i32 @_ZNK5QFlagcvjEv(ptr noundef nonnull align 4 dereferenceable(4) %3) #18
  store i32 %8, ptr %7, align 4
  ret void
}

; Function Attrs: mustprogress nounwind uwtable
define linkonce_odr void @_ZN5QFlagC2Ej(ptr noundef nonnull align 4 dereferenceable(4) %0, i32 noundef %1) unnamed_addr #5 comdat align 2 {
  %3 = alloca ptr, align 8
  %4 = alloca i32, align 4
  store ptr %0, ptr %3, align 8
  store i32 %1, ptr %4, align 4
  %5 = load ptr, ptr %3, align 8
  %6 = getelementptr inbounds %class.QFlag, ptr %5, i32 0, i32 0
  %7 = load i32, ptr %4, align 4
  store i32 %7, ptr %6, align 4
  ret void
}

; Function Attrs: mustprogress nounwind uwtable
define linkonce_odr i32 @_ZNK6QFlagsIN2Qt16KeyboardModifierEEorES1_(ptr noundef nonnull align 4 dereferenceable(4) %0, i32 noundef %1) #5 comdat align 2 {
  %3 = alloca %class.QFlags.26, align 4
  %4 = alloca ptr, align 8
  %5 = alloca i32, align 4
  %6 = alloca %class.QFlag, align 4
  store ptr %0, ptr %4, align 8
  store i32 %1, ptr %5, align 4
  %7 = load ptr, ptr %4, align 8
  %8 = getelementptr inbounds %class.QFlags.26, ptr %7, i32 0, i32 0
  %9 = load i32, ptr %8, align 4
  %10 = load i32, ptr %5, align 4
  %11 = or i32 %9, %10
  call void @_ZN5QFlagC2Ej(ptr noundef nonnull align 4 dereferenceable(4) %6, i32 noundef %11) #18
  %12 = getelementptr inbounds %class.QFlag, ptr %6, i32 0, i32 0
  %13 = load i32, ptr %12, align 4
  call void @_ZN6QFlagsIN2Qt16KeyboardModifierEEC2E5QFlag(ptr noundef nonnull align 4 dereferenceable(4) %3, i32 %13) #18
  %14 = getelementptr inbounds %class.QFlags.26, ptr %3, i32 0, i32 0
  %15 = load i32, ptr %14, align 4
  ret i32 %15
}

; Function Attrs: mustprogress nounwind uwtable
define linkonce_odr void @_ZN6QFlagsIN2Qt16KeyboardModifierEEC2ES1_(ptr noundef nonnull align 4 dereferenceable(4) %0, i32 noundef %1) unnamed_addr #5 comdat align 2 {
  %3 = alloca ptr, align 8
  %4 = alloca i32, align 4
  store ptr %0, ptr %3, align 8
  store i32 %1, ptr %4, align 4
  %5 = load ptr, ptr %3, align 8
  %6 = getelementptr inbounds %class.QFlags.26, ptr %5, i32 0, i32 0
  %7 = load i32, ptr %4, align 4
  store i32 %7, ptr %6, align 4
  ret void
}

; Function Attrs: mustprogress uwtable
define void @_ZN15RtpStreamDialog26on_actionAnalyze_triggeredEv(ptr noundef nonnull align 8 dereferenceable(360) %0) #0 align 2 {
  %2 = alloca ptr, align 8
  store ptr %0, ptr %2, align 8
  %3 = load ptr, ptr %2, align 8
  call void @_ZN15RtpStreamDialog14rtpAnalysisAddEv(ptr noundef nonnull align 8 dereferenceable(360) %3)
  ret void
}

; Function Attrs: mustprogress uwtable
define void @_ZN15RtpStreamDialog29on_actionSelectNone_triggeredEv(ptr noundef nonnull align 8 dereferenceable(360) %0) #0 align 2 {
  %2 = alloca ptr, align 8
  store ptr %0, ptr %2, align 8
  %3 = load ptr, ptr %2, align 8
  %4 = getelementptr inbounds %class.RtpStreamDialog, ptr %3, i32 0, i32 1
  %5 = load ptr, ptr %4, align 8
  %6 = getelementptr inbounds %class.Ui_RtpStreamDialog, ptr %5, i32 0, i32 18
  %7 = load ptr, ptr %6, align 8
  call void @_ZN17QAbstractItemView14clearSelectionEv(ptr noundef nonnull align 8 dereferenceable(40) %7)
  ret void
}

; Function Attrs: mustprogress nounwind uwtable
define linkonce_odr noundef zeroext i1 @_Zeq6QFlagsIN2Qt16KeyboardModifierEES2_(i32 %0, i32 %1) #5 comdat {
  %3 = alloca %class.QFlags.26, align 4
  %4 = alloca %class.QFlags.26, align 4
  %5 = getelementptr inbounds %class.QFlags.26, ptr %3, i32 0, i32 0
  store i32 %0, ptr %5, align 4
  %6 = getelementptr inbounds %class.QFlags.26, ptr %4, i32 0, i32 0
  store i32 %1, ptr %6, align 4
  %7 = getelementptr inbounds %class.QFlags.26, ptr %3, i32 0, i32 0
  %8 = load i32, ptr %7, align 4
  %9 = getelementptr inbounds %class.QFlags.26, ptr %4, i32 0, i32 0
  %10 = load i32, ptr %9, align 4
  %11 = icmp eq i32 %8, %10
  ret i1 %11
}

; Function Attrs: mustprogress nounwind uwtable
define linkonce_odr i32 @_ZN2QtorENS_16KeyboardModifierES0_(i32 noundef %0, i32 noundef %1) #5 comdat {
  %3 = alloca %class.QFlags.26, align 4
  %4 = alloca i32, align 4
  %5 = alloca i32, align 4
  %6 = alloca %class.QFlags.26, align 4
  store i32 %0, ptr %4, align 4
  store i32 %1, ptr %5, align 4
  %7 = load i32, ptr %4, align 4
  call void @_ZN6QFlagsIN2Qt16KeyboardModifierEEC2ES1_(ptr noundef nonnull align 4 dereferenceable(4) %6, i32 noundef %7) #18
  %8 = load i32, ptr %5, align 4
  %9 = call i32 @_ZNK6QFlagsIN2Qt16KeyboardModifierEEorES1_(ptr noundef nonnull align 4 dereferenceable(4) %6, i32 noundef %8) #18
  %10 = getelementptr inbounds %class.QFlags.26, ptr %3, i32 0, i32 0
  store i32 %9, ptr %10, align 4
  %11 = getelementptr inbounds %class.QFlags.26, ptr %3, i32 0, i32 0
  %12 = load i32, ptr %11, align 4
  ret i32 %12
}

; Function Attrs: mustprogress uwtable
define void @_ZN15RtpStreamDialog28on_actionSelectAll_triggeredEv(ptr noundef nonnull align 8 dereferenceable(360) %0) #0 align 2 {
  %2 = alloca ptr, align 8
  store ptr %0, ptr %2, align 8
  %3 = load ptr, ptr %2, align 8
  %4 = getelementptr inbounds %class.RtpStreamDialog, ptr %3, i32 0, i32 1
  %5 = load ptr, ptr %4, align 8
  %6 = getelementptr inbounds %class.Ui_RtpStreamDialog, ptr %5, i32 0, i32 18
  %7 = load ptr, ptr %6, align 8
  %8 = load ptr, ptr %7, align 8
  %9 = getelementptr inbounds ptr, ptr %8, i64 69
  %10 = load ptr, ptr %9, align 8
  call void %10(ptr noundef nonnull align 8 dereferenceable(40) %7)
  ret void
}

; Function Attrs: mustprogress uwtable
define void @_ZN15RtpStreamDialog31on_actionSelectInvert_triggeredEv(ptr noundef nonnull align 8 dereferenceable(360) %0) #0 align 2 {
  %2 = alloca ptr, align 8
  store ptr %0, ptr %2, align 8
  %3 = load ptr, ptr %2, align 8
  call void @_ZN15RtpStreamDialog15invertSelectionEv(ptr noundef nonnull align 8 dereferenceable(360) %3)
  ret void
}

; Function Attrs: mustprogress nounwind uwtable
define linkonce_odr noundef zeroext i1 @_Zeq6QFlagsIN2Qt16KeyboardModifierEES1_(i32 %0, i32 noundef %1) #5 comdat {
  %3 = alloca %class.QFlags.26, align 4
  %4 = alloca i32, align 4
  %5 = alloca %class.QFlags.26, align 4
  %6 = alloca %class.QFlags.26, align 4
  %7 = getelementptr inbounds %class.QFlags.26, ptr %3, i32 0, i32 0
  store i32 %0, ptr %7, align 4
  store i32 %1, ptr %4, align 4
  call void @llvm.memcpy.p0.p0.i64(ptr align 4 %5, ptr align 4 %3, i64 4, i1 false)
  %8 = load i32, ptr %4, align 4
  call void @_ZN6QFlagsIN2Qt16KeyboardModifierEEC2ES1_(ptr noundef nonnull align 4 dereferenceable(4) %6, i32 noundef %8) #18
  %9 = getelementptr inbounds %class.QFlags.26, ptr %5, i32 0, i32 0
  %10 = load i32, ptr %9, align 4
  %11 = getelementptr inbounds %class.QFlags.26, ptr %6, i32 0, i32 0
  %12 = load i32, ptr %11, align 4
  %13 = call noundef zeroext i1 @_Zeq6QFlagsIN2Qt16KeyboardModifierEES2_(i32 %10, i32 %12) #18
  ret i1 %13
}

; Function Attrs: mustprogress nounwind uwtable
define linkonce_odr noundef i32 @_ZNK9QKeyEvent3keyEv(ptr noundef nonnull align 8 dereferenceable(82) %0) #5 comdat align 2 {
  %2 = alloca ptr, align 8
  store ptr %0, ptr %2, align 8
  %3 = load ptr, ptr %2, align 8
  %4 = getelementptr inbounds %class.QKeyEvent, ptr %3, i32 0, i32 2
  %5 = load i32, ptr %4, align 8
  ret i32 %5
}

; Function Attrs: mustprogress nounwind uwtable
define linkonce_odr noundef i32 @_ZNK6QEvent4typeEv(ptr noundef nonnull align 8 dereferenceable(16) %0) #5 comdat align 2 {
  %2 = alloca ptr, align 8
  store ptr %0, ptr %2, align 8
  %3 = load ptr, ptr %2, align 8
  %4 = getelementptr inbounds %class.QEvent, ptr %3, i32 0, i32 1
  %5 = load i16, ptr %4, align 8
  %6 = zext i16 %5 to i32
  ret i32 %6
}

; Function Attrs: mustprogress uwtable
define noundef zeroext i1 @_ZN15RtpStreamDialog11eventFilterEP7QObjectP6QEvent(ptr noundef nonnull align 8 dereferenceable(360) %0, ptr noundef %1, ptr noundef %2) unnamed_addr #0 align 2 {
  %4 = alloca i1, align 1
  %5 = alloca ptr, align 8
  %6 = alloca ptr, align 8
  %7 = alloca ptr, align 8
  %8 = alloca ptr, align 8
  %9 = alloca %class.QFlags.26, align 4
  %10 = alloca %class.QFlags.26, align 4
  %11 = alloca %class.QFlags.26, align 4
  %12 = alloca %class.QFlags.26, align 4
  %13 = alloca %class.QFlags.26, align 4
  %14 = alloca %class.QFlags.26, align 4
  %15 = alloca %class.QFlags.26, align 4
  store ptr %0, ptr %5, align 8
  store ptr %1, ptr %6, align 8
  store ptr %2, ptr %7, align 8
  %16 = load ptr, ptr %5, align 8
  %17 = getelementptr inbounds %class.RtpStreamDialog, ptr %16, i32 0, i32 1
  %18 = load ptr, ptr %17, align 8
  %19 = getelementptr inbounds %class.Ui_RtpStreamDialog, ptr %18, i32 0, i32 18
  %20 = load ptr, ptr %19, align 8
  %21 = call noundef zeroext i1 @_ZNK7QWidget8hasFocusEv(ptr noundef nonnull align 8 dereferenceable(40) %20)
  br i1 %21, label %22, label %94

22:                                               ; preds = %3
  %23 = load ptr, ptr %7, align 8
  %24 = call noundef i32 @_ZNK6QEvent4typeEv(ptr noundef nonnull align 8 dereferenceable(16) %23)
  %25 = icmp eq i32 %24, 6
  br i1 %25, label %26, label %94

26:                                               ; preds = %22
  %27 = load ptr, ptr %7, align 8
  store ptr %27, ptr %8, align 8
  %28 = load ptr, ptr %8, align 8
  %29 = call noundef i32 @_ZNK9QKeyEvent3keyEv(ptr noundef nonnull align 8 dereferenceable(82) %28)
  switch i32 %29, label %92 [
    i32 71, label %30
    i32 77, label %31
    i32 80, label %32
    i32 82, label %33
    i32 73, label %52
    i32 65, label %61
  ]

30:                                               ; preds = %26
  call void @_ZN15RtpStreamDialog28on_actionGoToSetup_triggeredEv(ptr noundef nonnull align 8 dereferenceable(360) %16)
  store i1 true, ptr %4, align 1
  br label %95

31:                                               ; preds = %26
  call void @_ZN15RtpStreamDialog30on_actionMarkPackets_triggeredEv(ptr noundef nonnull align 8 dereferenceable(360) %16)
  store i1 true, ptr %4, align 1
  br label %95

32:                                               ; preds = %26
  call void @_ZN15RtpStreamDialog32on_actionPrepareFilter_triggeredEv(ptr noundef nonnull align 8 dereferenceable(360) %16)
  store i1 true, ptr %4, align 1
  br label %95

33:                                               ; preds = %26
  %34 = load ptr, ptr %8, align 8
  %35 = call i32 @_ZNK9QKeyEvent9modifiersEv(ptr noundef nonnull align 8 dereferenceable(82) %34)
  %36 = getelementptr inbounds %class.QFlags.26, ptr %9, i32 0, i32 0
  store i32 %35, ptr %36, align 4
  %37 = getelementptr inbounds %class.QFlags.26, ptr %9, i32 0, i32 0
  %38 = load i32, ptr %37, align 4
  %39 = call noundef zeroext i1 @_Zeq6QFlagsIN2Qt16KeyboardModifierEES1_(i32 %38, i32 noundef 33554432) #18
  br i1 %39, label %40, label %41

40:                                               ; preds = %33
  call void @_ZN15RtpStreamDialog34on_actionFindReversePair_triggeredEv(ptr noundef nonnull align 8 dereferenceable(360) %16)
  br label %51

41:                                               ; preds = %33
  %42 = load ptr, ptr %8, align 8
  %43 = call i32 @_ZNK9QKeyEvent9modifiersEv(ptr noundef nonnull align 8 dereferenceable(82) %42)
  %44 = getelementptr inbounds %class.QFlags.26, ptr %10, i32 0, i32 0
  store i32 %43, ptr %44, align 4
  %45 = getelementptr inbounds %class.QFlags.26, ptr %10, i32 0, i32 0
  %46 = load i32, ptr %45, align 4
  %47 = call noundef zeroext i1 @_Zeq6QFlagsIN2Qt16KeyboardModifierEES1_(i32 %46, i32 noundef 67108864) #18
  br i1 %47, label %48, label %49

48:                                               ; preds = %41
  call void @_ZN15RtpStreamDialog36on_actionFindReverseSingle_triggeredEv(ptr noundef nonnull align 8 dereferenceable(360) %16)
  br label %50

49:                                               ; preds = %41
  call void @_ZN15RtpStreamDialog36on_actionFindReverseNormal_triggeredEv(ptr noundef nonnull align 8 dereferenceable(360) %16)
  br label %50

50:                                               ; preds = %49, %48
  br label %51

51:                                               ; preds = %50, %40
  store i1 true, ptr %4, align 1
  br label %95

52:                                               ; preds = %26
  %53 = load ptr, ptr %8, align 8
  %54 = call i32 @_ZNK9QKeyEvent9modifiersEv(ptr noundef nonnull align 8 dereferenceable(82) %53)
  %55 = getelementptr inbounds %class.QFlags.26, ptr %11, i32 0, i32 0
  store i32 %54, ptr %55, align 4
  %56 = getelementptr inbounds %class.QFlags.26, ptr %11, i32 0, i32 0
  %57 = load i32, ptr %56, align 4
  %58 = call noundef zeroext i1 @_Zeq6QFlagsIN2Qt16KeyboardModifierEES1_(i32 %57, i32 noundef 67108864) #18
  br i1 %58, label %59, label %60

59:                                               ; preds = %52
  call void @_ZN15RtpStreamDialog31on_actionSelectInvert_triggeredEv(ptr noundef nonnull align 8 dereferenceable(360) %16)
  store i1 true, ptr %4, align 1
  br label %95

60:                                               ; preds = %52
  br label %93

61:                                               ; preds = %26
  %62 = load ptr, ptr %8, align 8
  %63 = call i32 @_ZNK9QKeyEvent9modifiersEv(ptr noundef nonnull align 8 dereferenceable(82) %62)
  %64 = getelementptr inbounds %class.QFlags.26, ptr %12, i32 0, i32 0
  store i32 %63, ptr %64, align 4
  %65 = getelementptr inbounds %class.QFlags.26, ptr %12, i32 0, i32 0
  %66 = load i32, ptr %65, align 4
  %67 = call noundef zeroext i1 @_Zeq6QFlagsIN2Qt16KeyboardModifierEES1_(i32 %66, i32 noundef 67108864) #18
  br i1 %67, label %68, label %69

68:                                               ; preds = %61
  call void @_ZN15RtpStreamDialog28on_actionSelectAll_triggeredEv(ptr noundef nonnull align 8 dereferenceable(360) %16)
  store i1 true, ptr %4, align 1
  br label %95

69:                                               ; preds = %61
  %70 = load ptr, ptr %8, align 8
  %71 = call i32 @_ZNK9QKeyEvent9modifiersEv(ptr noundef nonnull align 8 dereferenceable(82) %70)
  %72 = getelementptr inbounds %class.QFlags.26, ptr %13, i32 0, i32 0
  store i32 %71, ptr %72, align 4
  %73 = call i32 @_ZN2QtorENS_16KeyboardModifierES0_(i32 noundef 33554432, i32 noundef 67108864) #18
  %74 = getelementptr inbounds %class.QFlags.26, ptr %14, i32 0, i32 0
  store i32 %73, ptr %74, align 4
  %75 = getelementptr inbounds %class.QFlags.26, ptr %13, i32 0, i32 0
  %76 = load i32, ptr %75, align 4
  %77 = getelementptr inbounds %class.QFlags.26, ptr %14, i32 0, i32 0
  %78 = load i32, ptr %77, align 4
  %79 = call noundef zeroext i1 @_Zeq6QFlagsIN2Qt16KeyboardModifierEES2_(i32 %76, i32 %78) #18
  br i1 %79, label %80, label %81

80:                                               ; preds = %69
  call void @_ZN15RtpStreamDialog29on_actionSelectNone_triggeredEv(ptr noundef nonnull align 8 dereferenceable(360) %16)
  store i1 true, ptr %4, align 1
  br label %95

81:                                               ; preds = %69
  %82 = load ptr, ptr %8, align 8
  %83 = call i32 @_ZNK9QKeyEvent9modifiersEv(ptr noundef nonnull align 8 dereferenceable(82) %82)
  %84 = getelementptr inbounds %class.QFlags.26, ptr %15, i32 0, i32 0
  store i32 %83, ptr %84, align 4
  %85 = getelementptr inbounds %class.QFlags.26, ptr %15, i32 0, i32 0
  %86 = load i32, ptr %85, align 4
  %87 = call noundef zeroext i1 @_Zeq6QFlagsIN2Qt16KeyboardModifierEES1_(i32 %86, i32 noundef 0) #18
  br i1 %87, label %88, label %89

88:                                               ; preds = %81
  call void @_ZN15RtpStreamDialog26on_actionAnalyze_triggeredEv(ptr noundef nonnull align 8 dereferenceable(360) %16)
  br label %89

89:                                               ; preds = %88, %81
  br label %90

90:                                               ; preds = %89
  br label %91

91:                                               ; preds = %90
  br label %93

92:                                               ; preds = %26
  br label %93

93:                                               ; preds = %92, %91, %60
  br label %94

94:                                               ; preds = %93, %22, %3
  store i1 false, ptr %4, align 1
  br label %95

95:                                               ; preds = %94, %80, %68, %59, %51, %32, %31, %30
  %96 = load i1, ptr %4, align 1
  ret i1 %96
}