; Function Attrs: mustprogress uwtable
define noundef zeroext i1 @_ZN15RtpStreamDialog11eventFilterEP7QObjectP6QEvent(ptr noundef nonnull align 8 dereferenceable(360) %0, ptr nocapture noundef readnone %1, ptr noundef %2) unnamed_addr #0 align 2 {
  %4 = getelementptr inbounds i8, ptr %0, i64 136
  %5 = load ptr, ptr %4, align 8
  %6 = getelementptr inbounds i8, ptr %5, i64 144
  %7 = load ptr, ptr %6, align 8
  %8 = tail call noundef zeroext i1 @_ZNK7QWidget8hasFocusEv(ptr noundef nonnull align 8 dereferenceable(40) %7)
  br i1 %8, label %9, label %53

9:                                                ; preds = %3
  %10 = getelementptr inbounds i8, ptr %2, i64 8
  %11 = load i16, ptr %10, align 8
  %12 = icmp eq i16 %11, 6
  br i1 %12, label %13, label %53

13:                                               ; preds = %9
  %14 = getelementptr inbounds i8, ptr %2, i64 64
  %15 = load i32, ptr %14, align 8
  switch i32 %15, label %53 [
    i32 71, label %16
    i32 77, label %17
    i32 80, label %18
    i32 82, label %19
    i32 73, label %28
    i32 65, label %32
  ]

16:                                               ; preds = %13
  tail call void @_ZN15RtpStreamDialog28on_actionGoToSetup_triggeredEv(ptr noundef nonnull align 8 dereferenceable(360) %0)
  br label %53

17:                                               ; preds = %13
  tail call void @_ZN15RtpStreamDialog30on_actionMarkPackets_triggeredEv(ptr noundef nonnull align 8 dereferenceable(360) %0)
  br label %53

18:                                               ; preds = %13
  tail call void @_ZN15RtpStreamDialog32on_actionPrepareFilter_triggeredEv(ptr noundef nonnull align 8 dereferenceable(360) %0)
  br label %53

19:                                               ; preds = %13
  %20 = tail call i32 @_ZNK9QKeyEvent9modifiersEv(ptr noundef nonnull align 8 dereferenceable(82) %2)
  %21 = icmp eq i32 %20, 33554432
  br i1 %21, label %22, label %23

22:                                               ; preds = %19
  tail call void @_ZN15RtpStreamDialog34on_actionFindReversePair_triggeredEv(ptr noundef nonnull align 8 dereferenceable(360) %0)
  br label %53

23:                                               ; preds = %19
  %24 = tail call i32 @_ZNK9QKeyEvent9modifiersEv(ptr noundef nonnull align 8 dereferenceable(82) %2)
  %25 = icmp eq i32 %24, 67108864
  br i1 %25, label %26, label %27

26:                                               ; preds = %23
  tail call void @_ZN15RtpStreamDialog36on_actionFindReverseSingle_triggeredEv(ptr noundef nonnull align 8 dereferenceable(360) %0)
  br label %53

27:                                               ; preds = %23
  tail call void @_ZN15RtpStreamDialog36on_actionFindReverseNormal_triggeredEv(ptr noundef nonnull align 8 dereferenceable(360) %0)
  br label %53

28:                                               ; preds = %13
  %29 = tail call i32 @_ZNK9QKeyEvent9modifiersEv(ptr noundef nonnull align 8 dereferenceable(82) %2)
  %30 = icmp eq i32 %29, 67108864
  br i1 %30, label %31, label %53

31:                                               ; preds = %28
  tail call void @_ZN15RtpStreamDialog15invertSelectionEv(ptr noundef nonnull align 8 dereferenceable(360) %0)
  br label %53

32:                                               ; preds = %13
  %33 = tail call i32 @_ZNK9QKeyEvent9modifiersEv(ptr noundef nonnull align 8 dereferenceable(82) %2)
  %34 = icmp eq i32 %33, 67108864
  br i1 %34, label %35, label %42

35:                                               ; preds = %32
  %36 = load ptr, ptr %4, align 8
  %37 = getelementptr inbounds i8, ptr %36, i64 144
  %38 = load ptr, ptr %37, align 8
  %39 = load ptr, ptr %38, align 8
  %40 = getelementptr inbounds i8, ptr %39, i64 552
  %41 = load ptr, ptr %40, align 8
  tail call void %41(ptr noundef nonnull align 8 dereferenceable(40) %38)
  br label %53

42:                                               ; preds = %32
  %43 = tail call i32 @_ZNK9QKeyEvent9modifiersEv(ptr noundef nonnull align 8 dereferenceable(82) %2)
  %44 = icmp eq i32 %43, 100663296
  br i1 %44, label %45, label %49

45:                                               ; preds = %42
  %46 = load ptr, ptr %4, align 8
  %47 = getelementptr inbounds i8, ptr %46, i64 144
  %48 = load ptr, ptr %47, align 8
  tail call void @_ZN17QAbstractItemView14clearSelectionEv(ptr noundef nonnull align 8 dereferenceable(40) %48)
  br label %53

49:                                               ; preds = %42
  %50 = tail call i32 @_ZNK9QKeyEvent9modifiersEv(ptr noundef nonnull align 8 dereferenceable(82) %2)
  %51 = icmp eq i32 %50, 0
  br i1 %51, label %52, label %53

52:                                               ; preds = %49
  tail call void @_ZN15RtpStreamDialog14rtpAnalysisAddEv(ptr noundef nonnull align 8 dereferenceable(360) %0)
  br label %53

53:                                               ; preds = %3, %9, %13, %49, %52, %28, %22, %27, %26, %45, %35, %31, %18, %17, %16
  %.0 = phi i1 [ true, %35 ], [ true, %45 ], [ true, %31 ], [ true, %18 ], [ true, %17 ], [ true, %16 ], [ true, %26 ], [ true, %27 ], [ true, %22 ], [ false, %28 ], [ false, %52 ], [ false, %49 ], [ false, %13 ], [ false, %9 ], [ false, %3 ]
  ret i1 %.0
}